target datalayout = "e-m:e-p270:32:32-p271:32:32-p272:64:64-i64:64-i128:128-f80:128-n8:16:32:64-S128"
target triple = "x86_64-pc-linux-gnu"

%struct._zend_executor_globals = type { %struct._zval_struct, %struct._zval_struct, [32 x ptr], ptr, ptr, %struct._zend_array, %struct._zend_array, ptr, i32, i8, %struct._zval_struct, i32, ptr, ptr, ptr, ptr, ptr, ptr, i64, ptr, ptr, i32, ptr, i32, i64, i32, i32, i32, i8, i8, %struct.zend_atomic_bool_s, %struct.zend_atomic_bool_s, ptr, i64, ptr, ptr, %struct._zend_array, %struct._zend_array, i32, i8, %struct._zval_struct, %struct._zval_struct, %struct._zend_stack, %struct._zend_stack, %struct._zend_stack, ptr, i32, i32, i64, ptr, ptr, ptr, %struct._zend_objects_store, %struct._zend_lazy_objects_store, ptr, ptr, ptr, [3 x %struct._zend_op], ptr, i8, i8, i64, i32, i32, ptr, [16 x %struct._HashTableIterator], ptr, %union._zend_function, %struct._zend_op, %struct._zend_array, i64, %struct.zend_get_gc_buffer, ptr, ptr, ptr, i64, i8, i32, ptr, ptr, i64, %struct._zend_call_stack, i64, i64, %struct._zend_strtod_state, [6 x ptr] }
%struct.zend_atomic_bool_s = type { i8 }
%struct._zval_struct = type { %union._zend_value, %union.anon.9, %union.anon.12 }
%union._zend_value = type { i64 }
%union.anon.9 = type { i32 }
%union.anon.12 = type { i32 }
%struct._zend_stack = type { i32, i32, i32, ptr }
%struct._zend_objects_store = type { ptr, i32, i32, i32 }
%struct._zend_lazy_objects_store = type { %struct._zend_array }
%struct._HashTableIterator = type { ptr, i32, i32 }
%union._zend_function = type { %struct._zend_op_array }
%struct._zend_op_array = type { i8, [3 x i8], i32, ptr, ptr, ptr, i32, i32, ptr, ptr, ptr, ptr, i32, ptr, i32, i32, i32, ptr, ptr, ptr, ptr, ptr, i32, i32, ptr, ptr, ptr, i32, i32, i32, i32, ptr, ptr, [6 x ptr] }
%struct._zend_op = type { ptr, %union._znode_op, %union._znode_op, %union._znode_op, i32, i32, i8, i8, i8, i8 }
%union._znode_op = type { i32 }
%struct._zend_array = type { %struct._zend_refcounted_h, %union.anon.1, i32, %union.anon.2, i32, i32, i32, i32, i64, ptr }
%struct._zend_refcounted_h = type { i32, %union.anon.0 }
%union.anon.0 = type { i32 }
%union.anon.1 = type { i32 }
%union.anon.2 = type { ptr }
%struct.zend_get_gc_buffer = type { ptr, ptr, ptr }
%struct._zend_call_stack = type { ptr, i64 }
%struct._zend_strtod_state = type { [8 x ptr], ptr, ptr }
%struct._zend_class_entry = type { i8, ptr, %union.anon, i32, i32, i32, i32, ptr, ptr, ptr, %struct._zend_array, %struct._zend_array, %struct._zend_array, ptr, ptr, ptr, ptr, ptr, ptr, ptr, ptr, ptr, ptr, ptr, ptr, ptr, ptr, ptr, ptr, ptr, ptr, ptr, %union.anon.3, ptr, ptr, ptr, ptr, i32, i32, i32, i32, %union.anon.4, ptr, ptr, ptr, ptr, i32, ptr, ptr, %union.anon.5 }
%union.anon = type { ptr }
%union.anon.3 = type { ptr }
%union.anon.4 = type { ptr }
%union.anon.5 = type { %struct.anon.6 }
%struct.anon.6 = type { ptr, i32, i32 }
%struct.reflection_object = type { %struct._zval_struct, ptr, ptr, i32, %struct._zend_object }
%struct._zend_object = type { %struct._zend_refcounted_h, i32, i32, ptr, ptr, ptr, [1 x %struct._zval_struct] }
%struct._zend_string = type { %struct._zend_refcounted_h, i64, i64, [1 x i8] }
%struct._zend_execute_data = type { ptr, ptr, ptr, ptr, %struct._zval_struct, ptr, ptr, ptr, ptr }

@reflection_exception_ptr = dso_local global ptr null, align 8
@executor_globals = external global %struct._zend_executor_globals, align 8
@zend_ce_closure = external global ptr, align 8
@.str.10 = private unnamed_addr constant [57 x i8] c"Internal error: Failed to retrieve the reflection object\00", align 1
@.str.20 = private unnamed_addr constant [9 x i8] c"__invoke\00", align 1
@.str.44 = private unnamed_addr constant [2 x i8] c"S\00", align 1

; Function Attrs: alwaysinline nounwind uwtable
define internal i32 @zend_gc_delref(ptr noundef %0) #4 {
  %2 = alloca ptr, align 8
  store ptr %0, ptr %2, align 8, !tbaa !44
  %3 = load ptr, ptr %2, align 8, !tbaa !44
  %4 = getelementptr inbounds nuw %struct._zend_refcounted_h, ptr %3, i32 0, i32 0
  %5 = load i32, ptr %4, align 4, !tbaa !46
  %6 = icmp ugt i32 %5, 0
  call void @llvm.assume(i1 %6)
  br label %7

7:                                                ; preds = %1
  br label %8

8:                                                ; preds = %7
  %9 = load ptr, ptr %2, align 8, !tbaa !44
  %10 = getelementptr inbounds nuw %struct._zend_refcounted_h, ptr %9, i32 0, i32 0
  %11 = load i32, ptr %10, align 4, !tbaa !46
  %12 = add i32 %11, -1
  store i32 %12, ptr %10, align 4, !tbaa !46
  ret i32 %12
}

; Function Attrs: alwaysinline nounwind uwtable
define internal i32 @zval_gc_flags(i32 noundef %0) #4 {
  %2 = alloca i32, align 4
  store i32 %0, ptr %2, align 4, !tbaa !43
  %3 = load i32, ptr %2, align 4, !tbaa !43
  %4 = lshr i32 %3, 0
  %5 = and i32 %4, 1008
  ret i32 %5
}

; Function Attrs: alwaysinline nounwind uwtable
define internal zeroext i1 @zend_string_equals_cstr(ptr noundef %0, ptr noundef %1, i64 noundef %2) #4 {
  %4 = alloca ptr, align 8
  %5 = alloca ptr, align 8
  %6 = alloca i64, align 8
  store ptr %0, ptr %4, align 8, !tbaa !38
  store ptr %1, ptr %5, align 8, !tbaa !77
  store i64 %2, ptr %6, align 8, !tbaa !74
  %7 = load ptr, ptr %4, align 8, !tbaa !38
  %8 = getelementptr inbounds nuw %struct._zend_string, ptr %7, i32 0, i32 2
  %9 = load i64, ptr %8, align 8, !tbaa !82
  %10 = load i64, ptr %6, align 8, !tbaa !74
  %11 = icmp eq i64 %9, %10
  br i1 %11, label %12, label %21

12:                                               ; preds = %3
  %13 = load ptr, ptr %4, align 8, !tbaa !38
  %14 = getelementptr inbounds nuw %struct._zend_string, ptr %13, i32 0, i32 3
  %15 = getelementptr inbounds [1 x i8], ptr %14, i64 0, i64 0
  %16 = load ptr, ptr %5, align 8, !tbaa !77
  %17 = load i64, ptr %6, align 8, !tbaa !74
  %18 = call i32 @memcmp(ptr noundef %15, ptr noundef %16, i64 noundef %17) #16
  %19 = icmp ne i32 %18, 0
  %20 = xor i1 %19, true
  br label %21

21:                                               ; preds = %12, %3
  %22 = phi i1 [ false, %3 ], [ %20, %12 ]
  ret i1 %22
}

; Function Attrs: alwaysinline nounwind uwtable
define internal void @zend_string_release(ptr noundef %0) #4 {
  %2 = alloca ptr, align 8
  store ptr %0, ptr %2, align 8, !tbaa !38
  %3 = load ptr, ptr %2, align 8, !tbaa !38
  %4 = getelementptr inbounds nuw %struct._zend_string, ptr %3, i32 0, i32 0
  %5 = getelementptr inbounds nuw %struct._zend_refcounted_h, ptr %4, i32 0, i32 1
  %6 = load i32, ptr %5, align 4, !tbaa !29
  %7 = call i32 @zval_gc_flags(i32 noundef %6)
  %8 = and i32 %7, 64
  %9 = icmp ne i32 %8, 0
  br i1 %9, label %29, label %10

10:                                               ; preds = %1
  %11 = load ptr, ptr %2, align 8, !tbaa !38
  %12 = getelementptr inbounds nuw %struct._zend_string, ptr %11, i32 0, i32 0
  %13 = call i32 @zend_gc_delref(ptr noundef %12)
  %14 = icmp eq i32 %13, 0
  br i1 %14, label %15, label %28

15:                                               ; preds = %10
  %16 = load ptr, ptr %2, align 8, !tbaa !38
  %17 = getelementptr inbounds nuw %struct._zend_string, ptr %16, i32 0, i32 0
  %18 = getelementptr inbounds nuw %struct._zend_refcounted_h, ptr %17, i32 0, i32 1
  %19 = load i32, ptr %18, align 4, !tbaa !29
  %20 = call i32 @zval_gc_flags(i32 noundef %19)
  %21 = and i32 %20, 128
  %22 = icmp ne i32 %21, 0
  br i1 %22, label %23, label %25

23:                                               ; preds = %15
  %24 = load ptr, ptr %2, align 8, !tbaa !38
  call void @free(ptr noundef %24) #14
  br label %27

25:                                               ; preds = %15
  %26 = load ptr, ptr %2, align 8, !tbaa !38
  call void @_efree(ptr noundef %26)
  br label %27

27:                                               ; preds = %25, %23
  br label %28

28:                                               ; preds = %27, %10
  br label %29

29:                                               ; preds = %28, %1
  ret void
}

; Function Attrs: inlinehint nounwind uwtable
define internal zeroext i1 @is_closure_invoke(ptr noundef %0, ptr noundef %1) #3 {
  %3 = alloca ptr, align 8
  %4 = alloca ptr, align 8
  store ptr %0, ptr %3, align 8, !tbaa !4
  store ptr %1, ptr %4, align 8, !tbaa !38
  %5 = load ptr, ptr %3, align 8, !tbaa !4
  %6 = load ptr, ptr @zend_ce_closure, align 8, !tbaa !4
  %7 = icmp eq ptr %5, %6
  br i1 %7, label %8, label %11

8:                                                ; preds = %2
  %9 = load ptr, ptr %4, align 8, !tbaa !38
  %10 = call zeroext i1 @zend_string_equals_cstr(ptr noundef %9, ptr noundef @.str.20, i64 noundef 8)
  br label %11

11:                                               ; preds = %8, %2
  %12 = phi i1 [ false, %2 ], [ %10, %8 ]
  ret i1 %12
}

; Function Attrs: alwaysinline nounwind uwtable
define internal zeroext i1 @zend_hash_exists(ptr noundef %0, ptr noundef %1) #4 {
  %3 = alloca ptr, align 8
  %4 = alloca ptr, align 8
  store ptr %0, ptr %3, align 8, !tbaa !73
  store ptr %1, ptr %4, align 8, !tbaa !38
  %5 = load ptr, ptr %3, align 8, !tbaa !73
  %6 = load ptr, ptr %4, align 8, !tbaa !38
  %7 = call ptr @zend_hash_find(ptr noundef %5, ptr noundef %6)
  %8 = icmp ne ptr %7, null
  ret i1 %8
}

; Function Attrs: alwaysinline nounwind uwtable
define internal ptr @zend_string_tolower(ptr noundef %0) #4 {
  %2 = alloca ptr, align 8
  store ptr %0, ptr %2, align 8, !tbaa !38
  %3 = load ptr, ptr %2, align 8, !tbaa !38
  %4 = call ptr @zend_string_tolower_ex(ptr noundef %3, i1 noundef zeroext false)
  ret ptr %4
}

; Function Attrs: inlinehint nounwind uwtable
define internal ptr @reflection_object_from_obj(ptr noundef %0) #3 {
  %2 = alloca ptr, align 8
  store ptr %0, ptr %2, align 8, !tbaa !39
  %3 = load ptr, ptr %2, align 8, !tbaa !39
  %4 = getelementptr inbounds i8, ptr %3, i64 -40
  ret ptr %4
}

; Function Attrs: nounwind uwtable
define hidden void @zim_ReflectionClass_hasMethod(ptr noundef %0, ptr noundef %1) #0 {
  %3 = alloca ptr, align 8
  %4 = alloca ptr, align 8
  %5 = alloca ptr, align 8
  %6 = alloca ptr, align 8
  %7 = alloca ptr, align 8
  %8 = alloca ptr, align 8
  %9 = alloca i32, align 4
  store ptr %0, ptr %3, align 8, !tbaa !47
  store ptr %1, ptr %4, align 8, !tbaa !9
  call void @llvm.lifetime.start.p0(i64 8, ptr %5) #14
  call void @llvm.lifetime.start.p0(i64 8, ptr %6) #14
  call void @llvm.lifetime.start.p0(i64 8, ptr %7) #14
  call void @llvm.lifetime.start.p0(i64 8, ptr %8) #14
  %10 = load ptr, ptr %3, align 8, !tbaa !47
  %11 = getelementptr inbounds nuw %struct._zend_execute_data, ptr %10, i32 0, i32 4
  %12 = getelementptr inbounds nuw %struct._zval_struct, ptr %11, i32 0, i32 2
  %13 = load i32, ptr %12, align 4, !tbaa !29
  %14 = call i32 (i32, ptr, ...) @zend_parse_parameters(i32 noundef %13, ptr noundef @.str.44, ptr noundef %7)
  %15 = icmp eq i32 %14, -1
  br i1 %15, label %16, label %22

16:                                               ; preds = %2
  br label %17

17:                                               ; preds = %16
  %18 = load ptr, ptr getelementptr inbounds nuw (%struct._zend_executor_globals, ptr @executor_globals, i32 0, i32 54), align 8, !tbaa !49
  %19 = icmp ne ptr %18, null
  call void @llvm.assume(i1 %19)
  store i32 1, ptr %9, align 4
  br label %82

20:                                               ; No predecessors!
  br label %21

21:                                               ; preds = %20
  br label %22

22:                                               ; preds = %21, %2
  br label %23

23:                                               ; preds = %22
  br label %24

24:                                               ; preds = %23
  %25 = load ptr, ptr %3, align 8, !tbaa !47
  %26 = getelementptr inbounds nuw %struct._zend_execute_data, ptr %25, i32 0, i32 4
  %27 = getelementptr inbounds nuw %struct._zval_struct, ptr %26, i32 0, i32 0
  %28 = load ptr, ptr %27, align 8, !tbaa !29
  %29 = call ptr @reflection_object_from_obj(ptr noundef %28)
  store ptr %29, ptr %5, align 8, !tbaa !30
  %30 = load ptr, ptr %5, align 8, !tbaa !30
  %31 = getelementptr inbounds nuw %struct.reflection_object, ptr %30, i32 0, i32 1
  %32 = load ptr, ptr %31, align 8, !tbaa !31
  %33 = icmp eq ptr %32, null
  br i1 %33, label %34, label %55

34:                                               ; preds = %24
  %35 = load ptr, ptr getelementptr inbounds nuw (%struct._zend_executor_globals, ptr @executor_globals, i32 0, i32 54), align 8, !tbaa !49
  %36 = icmp ne ptr %35, null
  br i1 %36, label %37, label %49

37:                                               ; preds = %34
  %38 = load ptr, ptr getelementptr inbounds nuw (%struct._zend_executor_globals, ptr @executor_globals, i32 0, i32 54), align 8, !tbaa !49
  %39 = getelementptr inbounds nuw %struct._zend_object, ptr %38, i32 0, i32 3
  %40 = load ptr, ptr %39, align 8, !tbaa !41
  %41 = load ptr, ptr @reflection_exception_ptr, align 8, !tbaa !4
  %42 = icmp eq ptr %40, %41
  br i1 %42, label %43, label %49

43:                                               ; preds = %37
  br label %44

44:                                               ; preds = %43
  %45 = load ptr, ptr getelementptr inbounds nuw (%struct._zend_executor_globals, ptr @executor_globals, i32 0, i32 54), align 8, !tbaa !49
  %46 = icmp ne ptr %45, null
  call void @llvm.assume(i1 %46)
  store i32 1, ptr %9, align 4
  br label %82

47:                                               ; No predecessors!
  br label %48

48:                                               ; preds = %47
  br label %49

49:                                               ; preds = %48, %37, %34
  call void (ptr, ptr, ...) @zend_throw_error(ptr noundef null, ptr noundef @.str.10)
  br label %50

50:                                               ; preds = %49
  %51 = load ptr, ptr getelementptr inbounds nuw (%struct._zend_executor_globals, ptr @executor_globals, i32 0, i32 54), align 8, !tbaa !49
  %52 = icmp ne ptr %51, null
  call void @llvm.assume(i1 %52)
  store i32 1, ptr %9, align 4
  br label %82

53:                                               ; No predecessors!
  br label %54

54:                                               ; preds = %53
  br label %55

55:                                               ; preds = %54, %24
  br label %56

56:                                               ; preds = %55
  br label %57

57:                                               ; preds = %56
  %58 = load ptr, ptr %5, align 8, !tbaa !30
  %59 = getelementptr inbounds nuw %struct.reflection_object, ptr %58, i32 0, i32 1
  %60 = load ptr, ptr %59, align 8, !tbaa !31
  store ptr %60, ptr %6, align 8, !tbaa !4
  br label %61

61:                                               ; preds = %57
  br label %62

62:                                               ; preds = %61
  %63 = load ptr, ptr %7, align 8, !tbaa !38
  %64 = call ptr @zend_string_tolower(ptr noundef %63)
  store ptr %64, ptr %8, align 8, !tbaa !38
  br label %65

65:                                               ; preds = %62
  %66 = load ptr, ptr %6, align 8, !tbaa !4
  %67 = getelementptr inbounds nuw %struct._zend_class_entry, ptr %66, i32 0, i32 10
  %68 = load ptr, ptr %8, align 8, !tbaa !38
  %69 = call zeroext i1 @zend_hash_exists(ptr noundef %67, ptr noundef %68)
  br i1 %69, label %74, label %70

70:                                               ; preds = %65
  %71 = load ptr, ptr %6, align 8, !tbaa !4
  %72 = load ptr, ptr %8, align 8, !tbaa !38
  %73 = call zeroext i1 @is_closure_invoke(ptr noundef %71, ptr noundef %72)
  br label %74

74:                                               ; preds = %70, %65
  %75 = phi i1 [ true, %65 ], [ %73, %70 ]
  %76 = select i1 %75, i32 3, i32 2
  %77 = load ptr, ptr %4, align 8, !tbaa !9
  %78 = getelementptr inbounds nuw %struct._zval_struct, ptr %77, i32 0, i32 1
  store i32 %76, ptr %78, align 8, !tbaa !29
  br label %79

79:                                               ; preds = %74
  br label %80

80:                                               ; preds = %79
  %81 = load ptr, ptr %8, align 8, !tbaa !38
  call void @zend_string_release(ptr noundef %81)
  store i32 0, ptr %9, align 4
  br label %82

82:                                               ; preds = %80, %50, %44, %17
  call void @llvm.lifetime.end.p0(i64 8, ptr %8) #14
  call void @llvm.lifetime.end.p0(i64 8, ptr %7) #14
  call void @llvm.lifetime.end.p0(i64 8, ptr %6) #14
  call void @llvm.lifetime.end.p0(i64 8, ptr %5) #14
  %83 = load i32, ptr %9, align 4
  switch i32 %83, label %85 [
    i32 0, label %84
    i32 1, label %84
  ]

84:                                               ; preds = %82, %82
  ret void

85:                                               ; preds = %82
  unreachable
}