; Function Attrs: nounwind uwtable
define hidden void @zim_ReflectionClass_hasMethod(ptr noundef readonly captures(none) %0, ptr noundef writeonly captures(none) %1) #0 {
  %3 = alloca ptr, align 8
  call void @llvm.lifetime.start.p0(i64 8, ptr nonnull %3) #13
  %4 = getelementptr inbounds nuw i8, ptr %0, i64 44
  %5 = load i32, ptr %4, align 4, !tbaa !26
  %6 = call i32 (i32, ptr, ...) @zend_parse_parameters(i32 noundef %5, ptr noundef nonnull @.str.44, ptr noundef nonnull %3) #13
  %7 = icmp eq i32 %6, -1
  br i1 %7, label %8, label %11

8:                                                ; preds = %2
  %9 = load ptr, ptr getelementptr inbounds nuw (i8, ptr @executor_globals, i64 960), align 8, !tbaa !39
  %10 = icmp ne ptr %9, null
  call void @llvm.assume(i1 %10)
  br label %zend_string_release.exit

11:                                               ; preds = %2
  %12 = getelementptr inbounds nuw i8, ptr %0, i64 32
  %13 = load ptr, ptr %12, align 8, !tbaa !26
  %14 = getelementptr inbounds i8, ptr %13, i64 -24
  %15 = load ptr, ptr %14, align 8, !tbaa !27
  %16 = icmp eq ptr %15, null
  br i1 %16, label %17, label %27

17:                                               ; preds = %11
  %18 = load ptr, ptr getelementptr inbounds nuw (i8, ptr @executor_globals, i64 960), align 8, !tbaa !39
  %.not = icmp eq ptr %18, null
  br i1 %.not, label %24, label %19

19:                                               ; preds = %17
  %20 = getelementptr inbounds nuw i8, ptr %18, i64 16
  %21 = load ptr, ptr %20, align 8, !tbaa !34
  %22 = load ptr, ptr @reflection_exception_ptr, align 8, !tbaa !38
  %23 = icmp eq ptr %21, %22
  br i1 %23, label %zend_string_release.exit, label %24

24:                                               ; preds = %19, %17
  call void (ptr, ptr, ...) @zend_throw_error(ptr noundef null, ptr noundef nonnull @.str.10) #13
  %25 = load ptr, ptr getelementptr inbounds nuw (i8, ptr @executor_globals, i64 960), align 8, !tbaa !39
  %26 = icmp ne ptr %25, null
  call void @llvm.assume(i1 %26)
  br label %zend_string_release.exit

27:                                               ; preds = %11
  %28 = load ptr, ptr %3, align 8, !tbaa !68
  %29 = call ptr @zend_string_tolower_ex(ptr noundef %28, i1 noundef zeroext false) #13
  %30 = getelementptr inbounds nuw i8, ptr %15, i64 64
  %31 = call ptr @zend_hash_find(ptr noundef nonnull %30, ptr noundef %29) #13
  %.not12 = icmp eq ptr %31, null
  br i1 %.not12, label %32, label %is_closure_invoke.exit.thread

32:                                               ; preds = %27
  %33 = load ptr, ptr @zend_ce_closure, align 8, !tbaa !38
  %34 = icmp eq ptr %15, %33
  br i1 %34, label %35, label %is_closure_invoke.exit.thread

35:                                               ; preds = %32
  %36 = getelementptr inbounds nuw i8, ptr %29, i64 16
  %37 = load i64, ptr %36, align 8, !tbaa !76
  %38 = icmp eq i64 %37, 8
  br i1 %38, label %is_closure_invoke.exit, label %is_closure_invoke.exit.thread

is_closure_invoke.exit:                           ; preds = %35
  %39 = getelementptr inbounds nuw i8, ptr %29, i64 24
  %bcmp.i.i = call i32 @bcmp(ptr noundef nonnull readonly dereferenceable(8) %39, ptr noundef nonnull dereferenceable(8) @.str.20, i64 8)
  %bcmp.i.i.fr = freeze i32 %bcmp.i.i
  %.not.i.i = icmp eq i32 %bcmp.i.i.fr, 0
  %spec.select = select i1 %.not.i.i, i32 3, i32 2
  br label %is_closure_invoke.exit.thread

is_closure_invoke.exit.thread:                    ; preds = %is_closure_invoke.exit, %35, %32, %27
  %40 = phi i32 [ 3, %27 ], [ 2, %32 ], [ 2, %35 ], [ %spec.select, %is_closure_invoke.exit ]
  %41 = getelementptr inbounds nuw i8, ptr %1, i64 8
  store i32 %40, ptr %41, align 8, !tbaa !26
  %42 = getelementptr inbounds nuw i8, ptr %29, i64 4
  %43 = load i32, ptr %42, align 4, !tbaa !26
  %44 = and i32 %43, 64
  %.not.i = icmp eq i32 %44, 0
  br i1 %.not.i, label %45, label %zend_string_release.exit

45:                                               ; preds = %is_closure_invoke.exit.thread
  %46 = load i32, ptr %29, align 4, !tbaa !37
  %47 = icmp ne i32 %46, 0
  call void @llvm.assume(i1 %47)
  %48 = add i32 %46, -1
  store i32 %48, ptr %29, align 4, !tbaa !37
  %49 = icmp eq i32 %48, 0
  br i1 %49, label %50, label %zend_string_release.exit

50:                                               ; preds = %45
  %51 = and i32 %43, 128
  %.not5.i = icmp eq i32 %51, 0
  br i1 %.not5.i, label %53, label %52

52:                                               ; preds = %50
  call void @free(ptr noundef nonnull %29) #13
  br label %zend_string_release.exit

53:                                               ; preds = %50
  call void @_efree(ptr noundef nonnull %29) #13
  br label %zend_string_release.exit

zend_string_release.exit:                         ; preds = %53, %52, %45, %is_closure_invoke.exit.thread, %19, %24, %8
  call void @llvm.lifetime.end.p0(i64 8, ptr nonnull %3) #13
  ret void
}